target datalayout = "e-m:e-p270:32:32-p271:32:32-p272:64:64-i64:64-i128:128-f80:128-n8:16:32:64-S128"
target triple = "x86_64-pc-linux-gnu"

%"class.(anonymous namespace)::itanium_demangle::Node" = type <{ ptr, i8, i16, [5 x i8] }>
%"struct.(anonymous namespace)::itanium_demangle::AbstractManglingParser" = type { ptr, ptr, %"class.(anonymous namespace)::itanium_demangle::PODSmallVector", %"class.(anonymous namespace)::itanium_demangle::PODSmallVector", %"class.(anonymous namespace)::itanium_demangle::PODSmallVector.0", %"class.(anonymous namespace)::itanium_demangle::PODSmallVector.1", %"class.(anonymous namespace)::itanium_demangle::PODSmallVector.2", i8, i8, i8, i64, [3 x i32], [12 x i8], %"class.(anonymous namespace)::DefaultAllocator" }
%"class.(anonymous namespace)::itanium_demangle::PODSmallVector" = type { ptr, ptr, ptr, [32 x ptr] }
%"class.(anonymous namespace)::itanium_demangle::PODSmallVector.0" = type { ptr, ptr, ptr, [8 x ptr] }
%"class.(anonymous namespace)::itanium_demangle::PODSmallVector.1" = type { ptr, ptr, ptr, [4 x ptr] }
%"class.(anonymous namespace)::itanium_demangle::PODSmallVector.2" = type { ptr, ptr, ptr, [4 x ptr] }
%"class.(anonymous namespace)::DefaultAllocator" = type { %"class.(anonymous namespace)::BumpPointerAllocator" }
%"class.(anonymous namespace)::BumpPointerAllocator" = type { [4096 x i8], ptr, [8 x i8] }
%"class.std::__1::basic_string_view" = type { ptr, i64 }
%"struct.(anonymous namespace)::BumpPointerAllocator::BlockMeta" = type { ptr, i64 }
%"class.(anonymous namespace)::itanium_demangle::Node.base" = type <{ ptr, i8, i16 }>
%"class.(anonymous namespace)::itanium_demangle::FunctionParam" = type { %"class.(anonymous namespace)::itanium_demangle::Node.base", %"class.std::__1::basic_string_view" }

; Function Attrs: mustprogress nounwind uwtable
define internal void @_ZN12_GLOBAL__N_116itanium_demangle4NodeC2ENS1_4KindENS1_4PrecENS1_5CacheES4_S4_(ptr noundef nonnull align 8 dereferenceable(11) %0, i8 noundef zeroext %1, i8 noundef zeroext %2, i8 noundef zeroext %3, i8 noundef zeroext %4, i8 noundef zeroext %5) unnamed_addr #6 align 2 {
  %7 = alloca ptr, align 8
  %8 = alloca i8, align 1
  %9 = alloca i8, align 1
  %10 = alloca i8, align 1
  %11 = alloca i8, align 1
  %12 = alloca i8, align 1
  store ptr %0, ptr %7, align 8, !tbaa !4
  store i8 %1, ptr %8, align 1, !tbaa !234
  store i8 %2, ptr %9, align 1, !tbaa !234
  store i8 %3, ptr %10, align 1, !tbaa !234
  store i8 %4, ptr %11, align 1, !tbaa !234
  store i8 %5, ptr %12, align 1, !tbaa !234
  %13 = load ptr, ptr %7, align 8
  store ptr getelementptr inbounds inrange(-16, 80) ({ [12 x ptr] }, ptr @_ZTVN12_GLOBAL__N_116itanium_demangle4NodeE, i32 0, i32 0, i32 2), ptr %13, align 8, !tbaa !232
  %14 = getelementptr inbounds nuw %"class.(anonymous namespace)::itanium_demangle::Node", ptr %13, i32 0, i32 1
  %15 = load i8, ptr %8, align 1, !tbaa !234
  store i8 %15, ptr %14, align 8, !tbaa !16
  %16 = getelementptr inbounds nuw %"class.(anonymous namespace)::itanium_demangle::Node", ptr %13, i32 0, i32 2
  %17 = load i8, ptr %9, align 1, !tbaa !234
  %18 = zext i8 %17 to i16
  %19 = load i16, ptr %16, align 1
  %20 = and i16 %18, 63
  %21 = and i16 %19, -64
  %22 = or i16 %21, %20
  store i16 %22, ptr %16, align 1
  %23 = getelementptr inbounds nuw %"class.(anonymous namespace)::itanium_demangle::Node", ptr %13, i32 0, i32 2
  %24 = load i8, ptr %10, align 1, !tbaa !234
  %25 = zext i8 %24 to i16
  %26 = load i16, ptr %23, align 1
  %27 = and i16 %25, 3
  %28 = shl i16 %27, 6
  %29 = and i16 %26, -193
  %30 = or i16 %29, %28
  store i16 %30, ptr %23, align 1
  %31 = getelementptr inbounds nuw %"class.(anonymous namespace)::itanium_demangle::Node", ptr %13, i32 0, i32 2
  %32 = load i8, ptr %11, align 1, !tbaa !234
  %33 = zext i8 %32 to i16
  %34 = load i16, ptr %31, align 1
  %35 = and i16 %33, 3
  %36 = shl i16 %35, 8
  %37 = and i16 %34, -769
  %38 = or i16 %37, %36
  store i16 %38, ptr %31, align 1
  %39 = getelementptr inbounds nuw %"class.(anonymous namespace)::itanium_demangle::Node", ptr %13, i32 0, i32 2
  %40 = load i8, ptr %12, align 1, !tbaa !234
  %41 = zext i8 %40 to i16
  %42 = load i16, ptr %39, align 1
  %43 = and i16 %41, 3
  %44 = shl i16 %43, 10
  %45 = and i16 %42, -3073
  %46 = or i16 %45, %44
  store i16 %46, ptr %39, align 1
  ret void
}

; Function Attrs: mustprogress nounwind uwtable
define internal void @_ZN12_GLOBAL__N_120BumpPointerAllocator4growEv(ptr noundef nonnull align 16 dereferenceable(4104) %0) #6 align 2 {
  %2 = alloca ptr, align 8
  %3 = alloca ptr, align 8
  store ptr %0, ptr %2, align 8, !tbaa !266
  %4 = load ptr, ptr %2, align 8
  call void @llvm.lifetime.start.p0(i64 8, ptr %3) #19
  %5 = call noalias ptr @malloc(i64 noundef 4096) #25
  store ptr %5, ptr %3, align 8, !tbaa !194
  %6 = load ptr, ptr %3, align 8, !tbaa !194
  %7 = icmp eq ptr %6, null
  br i1 %7, label %8, label %9

8:                                                ; preds = %1
  call void @_ZSt9terminatev() #22
  unreachable

9:                                                ; preds = %1
  %10 = load ptr, ptr %3, align 8, !tbaa !194
  %11 = getelementptr inbounds nuw %"struct.(anonymous namespace)::BumpPointerAllocator::BlockMeta", ptr %10, i32 0, i32 0
  %12 = getelementptr inbounds nuw %"class.(anonymous namespace)::BumpPointerAllocator", ptr %4, i32 0, i32 1
  %13 = load ptr, ptr %12, align 16, !tbaa !271
  store ptr %13, ptr %11, align 8, !tbaa !268
  %14 = getelementptr inbounds nuw %"struct.(anonymous namespace)::BumpPointerAllocator::BlockMeta", ptr %10, i32 0, i32 1
  store i64 0, ptr %14, align 8, !tbaa !270
  %15 = getelementptr inbounds nuw %"class.(anonymous namespace)::BumpPointerAllocator", ptr %4, i32 0, i32 1
  store ptr %10, ptr %15, align 16, !tbaa !271
  call void @llvm.lifetime.end.p0(i64 8, ptr %3) #19
  ret void
}

; Function Attrs: mustprogress nounwind uwtable
define internal noundef ptr @_ZN12_GLOBAL__N_120BumpPointerAllocator15allocateMassiveEm(ptr noundef nonnull align 16 dereferenceable(4104) %0, i64 noundef %1) #6 align 2 {
  %3 = alloca ptr, align 8
  %4 = alloca i64, align 8
  %5 = alloca ptr, align 8
  store ptr %0, ptr %3, align 8, !tbaa !266
  store i64 %1, ptr %4, align 8, !tbaa !203
  %6 = load ptr, ptr %3, align 8
  %7 = load i64, ptr %4, align 8, !tbaa !203
  %8 = add i64 %7, 16
  store i64 %8, ptr %4, align 8, !tbaa !203
  call void @llvm.lifetime.start.p0(i64 8, ptr %5) #19
  %9 = load i64, ptr %4, align 8, !tbaa !203
  %10 = call noalias ptr @malloc(i64 noundef %9) #25
  store ptr %10, ptr %5, align 8, !tbaa !276
  %11 = load ptr, ptr %5, align 8, !tbaa !276
  %12 = icmp eq ptr %11, null
  br i1 %12, label %13, label %14

13:                                               ; preds = %2
  call void @_ZSt9terminatev() #22
  unreachable

14:                                               ; preds = %2
  %15 = load ptr, ptr %5, align 8, !tbaa !276
  %16 = getelementptr inbounds nuw %"struct.(anonymous namespace)::BumpPointerAllocator::BlockMeta", ptr %15, i32 0, i32 0
  %17 = getelementptr inbounds nuw %"class.(anonymous namespace)::BumpPointerAllocator", ptr %6, i32 0, i32 1
  %18 = load ptr, ptr %17, align 16, !tbaa !271
  %19 = getelementptr inbounds nuw %"struct.(anonymous namespace)::BumpPointerAllocator::BlockMeta", ptr %18, i32 0, i32 0
  %20 = load ptr, ptr %19, align 8, !tbaa !268
  store ptr %20, ptr %16, align 8, !tbaa !268
  %21 = getelementptr inbounds nuw %"struct.(anonymous namespace)::BumpPointerAllocator::BlockMeta", ptr %15, i32 0, i32 1
  store i64 0, ptr %21, align 8, !tbaa !270
  %22 = getelementptr inbounds nuw %"class.(anonymous namespace)::BumpPointerAllocator", ptr %6, i32 0, i32 1
  %23 = load ptr, ptr %22, align 16, !tbaa !271
  %24 = getelementptr inbounds nuw %"struct.(anonymous namespace)::BumpPointerAllocator::BlockMeta", ptr %23, i32 0, i32 0
  store ptr %15, ptr %24, align 8, !tbaa !268
  %25 = load ptr, ptr %5, align 8, !tbaa !276
  %26 = getelementptr inbounds %"struct.(anonymous namespace)::BumpPointerAllocator::BlockMeta", ptr %25, i64 1
  call void @llvm.lifetime.end.p0(i64 8, ptr %5) #19
  ret ptr %26
}

; Function Attrs: mustprogress nounwind uwtable
define internal void @_ZN12_GLOBAL__N_116itanium_demangle13FunctionParamC2ENSt3__117basic_string_viewIcNS2_11char_traitsIcEEEE(ptr noundef nonnull align 8 dereferenceable(32) %0, ptr %1, i64 %2) unnamed_addr #6 align 2 {
  %4 = alloca %"class.std::__1::basic_string_view", align 8
  %5 = alloca ptr, align 8
  %6 = getelementptr inbounds nuw { ptr, i64 }, ptr %4, i32 0, i32 0
  store ptr %1, ptr %6, align 8
  %7 = getelementptr inbounds nuw { ptr, i64 }, ptr %4, i32 0, i32 1
  store i64 %2, ptr %7, align 8
  store ptr %0, ptr %5, align 8, !tbaa !152
  %8 = load ptr, ptr %5, align 8
  call void @_ZN12_GLOBAL__N_116itanium_demangle4NodeC2ENS1_4KindENS1_4PrecENS1_5CacheES4_S4_(ptr noundef nonnull align 8 dereferenceable(11) %8, i8 noundef zeroext 67, i8 noundef zeroext 0, i8 noundef zeroext 1, i8 noundef zeroext 1, i8 noundef zeroext 1)
  store ptr getelementptr inbounds inrange(-16, 80) ({ [12 x ptr] }, ptr @_ZTVN12_GLOBAL__N_116itanium_demangle13FunctionParamE, i32 0, i32 0, i32 2), ptr %8, align 8, !tbaa !232
  %9 = getelementptr inbounds nuw %"class.(anonymous namespace)::itanium_demangle::FunctionParam", ptr %8, i32 0, i32 1
  call void @llvm.memcpy.p0.p0.i64(ptr align 8 %9, ptr align 8 %4, i64 16, i1 false), !tbaa.struct !474
  ret void
}

; Function Attrs: mustprogress uwtable
define internal noundef ptr @_ZN12_GLOBAL__N_120BumpPointerAllocator8allocateEm(ptr noundef nonnull align 16 dereferenceable(4104) %0, i64 noundef %1) #3 align 2 {
  %3 = alloca ptr, align 8
  %4 = alloca ptr, align 8
  %5 = alloca i64, align 8
  store ptr %0, ptr %4, align 8, !tbaa !266
  store i64 %1, ptr %5, align 8, !tbaa !203
  %6 = load ptr, ptr %4, align 8
  %7 = load i64, ptr %5, align 8, !tbaa !203
  %8 = add i64 %7, 15
  %9 = and i64 %8, 4294967280
  store i64 %9, ptr %5, align 8, !tbaa !203
  %10 = load i64, ptr %5, align 8, !tbaa !203
  %11 = getelementptr inbounds nuw %"class.(anonymous namespace)::BumpPointerAllocator", ptr %6, i32 0, i32 1
  %12 = load ptr, ptr %11, align 16, !tbaa !271
  %13 = getelementptr inbounds nuw %"struct.(anonymous namespace)::BumpPointerAllocator::BlockMeta", ptr %12, i32 0, i32 1
  %14 = load i64, ptr %13, align 8, !tbaa !270
  %15 = add i64 %10, %14
  %16 = icmp uge i64 %15, 4080
  br i1 %16, label %17, label %24

17:                                               ; preds = %2
  %18 = load i64, ptr %5, align 8, !tbaa !203
  %19 = icmp ugt i64 %18, 4080
  br i1 %19, label %20, label %23

20:                                               ; preds = %17
  %21 = load i64, ptr %5, align 8, !tbaa !203
  %22 = call noundef ptr @_ZN12_GLOBAL__N_120BumpPointerAllocator15allocateMassiveEm(ptr noundef nonnull align 16 dereferenceable(4104) %6, i64 noundef %21)
  store ptr %22, ptr %3, align 8
  br label %42

23:                                               ; preds = %17
  call void @_ZN12_GLOBAL__N_120BumpPointerAllocator4growEv(ptr noundef nonnull align 16 dereferenceable(4104) %6)
  br label %24

24:                                               ; preds = %23, %2
  %25 = load i64, ptr %5, align 8, !tbaa !203
  %26 = getelementptr inbounds nuw %"class.(anonymous namespace)::BumpPointerAllocator", ptr %6, i32 0, i32 1
  %27 = load ptr, ptr %26, align 16, !tbaa !271
  %28 = getelementptr inbounds nuw %"struct.(anonymous namespace)::BumpPointerAllocator::BlockMeta", ptr %27, i32 0, i32 1
  %29 = load i64, ptr %28, align 8, !tbaa !270
  %30 = add i64 %29, %25
  store i64 %30, ptr %28, align 8, !tbaa !270
  %31 = getelementptr inbounds nuw %"class.(anonymous namespace)::BumpPointerAllocator", ptr %6, i32 0, i32 1
  %32 = load ptr, ptr %31, align 16, !tbaa !271
  %33 = getelementptr inbounds %"struct.(anonymous namespace)::BumpPointerAllocator::BlockMeta", ptr %32, i64 1
  %34 = getelementptr inbounds nuw %"class.(anonymous namespace)::BumpPointerAllocator", ptr %6, i32 0, i32 1
  %35 = load ptr, ptr %34, align 16, !tbaa !271
  %36 = getelementptr inbounds nuw %"struct.(anonymous namespace)::BumpPointerAllocator::BlockMeta", ptr %35, i32 0, i32 1
  %37 = load i64, ptr %36, align 8, !tbaa !270
  %38 = getelementptr inbounds nuw i8, ptr %33, i64 %37
  %39 = load i64, ptr %5, align 8, !tbaa !203
  %40 = sub i64 0, %39
  %41 = getelementptr inbounds i8, ptr %38, i64 %40
  store ptr %41, ptr %3, align 8
  br label %42

42:                                               ; preds = %24, %20
  %43 = load ptr, ptr %3, align 8
  ret ptr %43
}

; Function Attrs: mustprogress uwtable
define internal noundef ptr @_ZN12_GLOBAL__N_116DefaultAllocator8makeNodeINS_16itanium_demangle13FunctionParamEJRNSt3__117basic_string_viewIcNS4_11char_traitsIcEEEEEEEPT_DpOT0_(ptr noundef nonnull align 16 dereferenceable(4112) %0, ptr noundef nonnull align 8 dereferenceable(16) %1) #3 align 2 {
  %3 = alloca ptr, align 8
  %4 = alloca ptr, align 8
  %5 = alloca %"class.std::__1::basic_string_view", align 8
  store ptr %0, ptr %3, align 8, !tbaa !264
  store ptr %1, ptr %4, align 8, !tbaa !475
  %6 = load ptr, ptr %3, align 8
  %7 = getelementptr inbounds nuw %"class.(anonymous namespace)::DefaultAllocator", ptr %6, i32 0, i32 0
  %8 = call noundef ptr @_ZN12_GLOBAL__N_120BumpPointerAllocator8allocateEm(ptr noundef nonnull align 16 dereferenceable(4104) %7, i64 noundef 32)
  %9 = load ptr, ptr %4, align 8, !tbaa !475
  call void @llvm.memcpy.p0.p0.i64(ptr align 8 %5, ptr align 8 %9, i64 16, i1 false), !tbaa.struct !474
  %10 = getelementptr inbounds nuw { ptr, i64 }, ptr %5, i32 0, i32 0
  %11 = load ptr, ptr %10, align 8
  %12 = getelementptr inbounds nuw { ptr, i64 }, ptr %5, i32 0, i32 1
  %13 = load i64, ptr %12, align 8
  call void @_ZN12_GLOBAL__N_116itanium_demangle13FunctionParamC2ENSt3__117basic_string_viewIcNS2_11char_traitsIcEEEE(ptr noundef nonnull align 8 dereferenceable(32) %8, ptr %11, i64 %13)
  ret ptr %8
}

; Function Attrs: mustprogress uwtable
define internal noundef ptr @_ZN12_GLOBAL__N_116itanium_demangle22AbstractManglingParserINS0_14ManglingParserINS_16DefaultAllocatorEEES3_E4makeINS0_13FunctionParamEJRNSt3__117basic_string_viewIcNS8_11char_traitsIcEEEEEEEPNS0_4NodeEDpOT0_(ptr noundef nonnull align 16 dereferenceable(4928) %0, ptr noundef nonnull align 8 dereferenceable(16) %1) #3 align 2 {
  %3 = alloca ptr, align 8
  %4 = alloca ptr, align 8
  store ptr %0, ptr %3, align 8, !tbaa !207
  store ptr %1, ptr %4, align 8, !tbaa !475
  %5 = load ptr, ptr %3, align 8
  %6 = getelementptr inbounds nuw %"struct.(anonymous namespace)::itanium_demangle::AbstractManglingParser", ptr %5, i32 0, i32 13
  %7 = load ptr, ptr %4, align 8, !tbaa !475
  %8 = call noundef ptr @_ZN12_GLOBAL__N_116DefaultAllocator8makeNodeINS_16itanium_demangle13FunctionParamEJRNSt3__117basic_string_viewIcNS4_11char_traitsIcEEEEEEEPT_DpOT0_(ptr noundef nonnull align 16 dereferenceable(4112) %6, ptr noundef nonnull align 8 dereferenceable(16) %7)
  ret ptr %8
}